; Function Attrs: mustprogress uwtable
define internal void @_ZN7rocksdb4test12_GLOBAL__N_118SpecialMemTableRep18InsertConcurrentlyEPv(ptr noundef nonnull align 8 captures(none) dereferenceable(32) %0, ptr noundef %1) unnamed_addr #7 align 2 {
  %3 = getelementptr inbounds nuw i8, ptr %0, i64 28
  %4 = load i32, ptr %3, align 4, !tbaa !586
  %5 = add nsw i32 %4, 1
  store i32 %5, ptr %3, align 4, !tbaa !586
  %6 = getelementptr inbounds nuw i8, ptr %0, i64 16
  %7 = load ptr, ptr %6, align 8, !tbaa !576
  %8 = load ptr, ptr %7, align 8, !tbaa !25
  %9 = getelementptr inbounds nuw i8, ptr %8, i64 8
  %10 = load ptr, ptr %9, align 8
  tail call void %10(ptr noundef nonnull align 8 dereferenceable(16) %7, ptr noundef %1)
  ret void
}